target datalayout = "e-m:e-p270:32:32-p271:32:32-p272:64:64-i64:64-i128:128-f80:128-n8:16:32:64-S128"
target triple = "x86_64-pc-linux-gnu"

%struct._lv_vector_path_t = type { i32, %struct._lv_array_t, %struct._lv_array_t }
%struct._lv_array_t = type { ptr, i32, i32, i32, i8 }

; Function Attrs: nounwind uwtable
define void @lv_vector_path_cubic_to(ptr noundef %0, ptr noundef %1, ptr noundef %2, ptr noundef %3) #0 {
  %5 = alloca ptr, align 8
  %6 = alloca ptr, align 8
  %7 = alloca ptr, align 8
  %8 = alloca ptr, align 8
  %9 = alloca i32, align 4
  store ptr %0, ptr %5, align 8, !tbaa !3
  store ptr %1, ptr %6, align 8, !tbaa !3
  store ptr %2, ptr %7, align 8, !tbaa !3
  store ptr %3, ptr %8, align 8, !tbaa !3
  %10 = load ptr, ptr %5, align 8, !tbaa !3
  %11 = getelementptr inbounds nuw %struct._lv_vector_path_t, ptr %10, i32 0, i32 1
  %12 = call zeroext i1 @lv_array_is_empty(ptr noundef %11)
  br i1 %12, label %13, label %14

13:                                               ; preds = %4
  br label %68

14:                                               ; preds = %4
  br label %15

15:                                               ; preds = %14
  %16 = load ptr, ptr %5, align 8, !tbaa !3
  %17 = getelementptr inbounds nuw %struct._lv_vector_path_t, ptr %16, i32 0, i32 1
  %18 = call i32 @lv_array_size(ptr noundef %17)
  %19 = add i32 %18, 3
  %20 = load ptr, ptr %5, align 8, !tbaa !3
  %21 = getelementptr inbounds nuw %struct._lv_vector_path_t, ptr %20, i32 0, i32 1
  %22 = call i32 @lv_array_capacity(ptr noundef %21)
  %23 = icmp ugt i32 %19, %22
  br i1 %23, label %24, label %33

24:                                               ; preds = %15
  %25 = load ptr, ptr %5, align 8, !tbaa !3
  %26 = getelementptr inbounds nuw %struct._lv_vector_path_t, ptr %25, i32 0, i32 1
  %27 = load ptr, ptr %5, align 8, !tbaa !3
  %28 = getelementptr inbounds nuw %struct._lv_vector_path_t, ptr %27, i32 0, i32 1
  %29 = getelementptr inbounds nuw %struct._lv_array_t, ptr %28, i32 0, i32 2
  %30 = load i32, ptr %29, align 4, !tbaa !22
  %31 = shl i32 %30, 1
  %32 = call zeroext i1 @lv_array_resize(ptr noundef %26, i32 noundef %31)
  br label %33

33:                                               ; preds = %24, %15
  %34 = load ptr, ptr %5, align 8, !tbaa !3
  %35 = getelementptr inbounds nuw %struct._lv_vector_path_t, ptr %34, i32 0, i32 2
  %36 = call i32 @lv_array_size(ptr noundef %35)
  %37 = add i32 %36, 3
  %38 = load ptr, ptr %5, align 8, !tbaa !3
  %39 = getelementptr inbounds nuw %struct._lv_vector_path_t, ptr %38, i32 0, i32 2
  %40 = call i32 @lv_array_capacity(ptr noundef %39)
  %41 = icmp ugt i32 %37, %40
  br i1 %41, label %42, label %51

42:                                               ; preds = %33
  %43 = load ptr, ptr %5, align 8, !tbaa !3
  %44 = getelementptr inbounds nuw %struct._lv_vector_path_t, ptr %43, i32 0, i32 2
  %45 = load ptr, ptr %5, align 8, !tbaa !3
  %46 = getelementptr inbounds nuw %struct._lv_vector_path_t, ptr %45, i32 0, i32 2
  %47 = getelementptr inbounds nuw %struct._lv_array_t, ptr %46, i32 0, i32 2
  %48 = load i32, ptr %47, align 4, !tbaa !23
  %49 = shl i32 %48, 1
  %50 = call zeroext i1 @lv_array_resize(ptr noundef %44, i32 noundef %49)
  br label %51

51:                                               ; preds = %42, %33
  br label %52

52:                                               ; preds = %51
  call void @llvm.lifetime.start.p0(i64 4, ptr %9) #7
  store i32 3, ptr %9, align 4, !tbaa !12
  %53 = load ptr, ptr %5, align 8, !tbaa !3
  %54 = getelementptr inbounds nuw %struct._lv_vector_path_t, ptr %53, i32 0, i32 1
  %55 = call i32 @lv_array_push_back(ptr noundef %54, ptr noundef %9)
  %56 = load ptr, ptr %5, align 8, !tbaa !3
  %57 = getelementptr inbounds nuw %struct._lv_vector_path_t, ptr %56, i32 0, i32 2
  %58 = load ptr, ptr %6, align 8, !tbaa !3
  %59 = call i32 @lv_array_push_back(ptr noundef %57, ptr noundef %58)
  %60 = load ptr, ptr %5, align 8, !tbaa !3
  %61 = getelementptr inbounds nuw %struct._lv_vector_path_t, ptr %60, i32 0, i32 2
  %62 = load ptr, ptr %7, align 8, !tbaa !3
  %63 = call i32 @lv_array_push_back(ptr noundef %61, ptr noundef %62)
  %64 = load ptr, ptr %5, align 8, !tbaa !3
  %65 = getelementptr inbounds nuw %struct._lv_vector_path_t, ptr %64, i32 0, i32 2
  %66 = load ptr, ptr %8, align 8, !tbaa !3
  %67 = call i32 @lv_array_push_back(ptr noundef %65, ptr noundef %66)
  call void @llvm.lifetime.end.p0(i64 4, ptr %9) #7
  br label %68

68:                                               ; preds = %52, %13
  ret void
}