; Function Attrs: nounwind uwtable
define void @lv_vector_path_cubic_to(ptr noundef %0, ptr noundef %1, ptr noundef %2, ptr noundef %3) local_unnamed_addr #3 {
  %5 = alloca i32, align 4
  %6 = getelementptr inbounds nuw i8, ptr %0, i64 8
  %7 = tail call zeroext i1 @lv_array_is_empty(ptr noundef nonnull %6) #9
  br i1 %7, label %34, label %8

8:                                                ; preds = %4
  %9 = tail call i32 @lv_array_size(ptr noundef nonnull %6) #9
  %10 = add i32 %9, 3
  %11 = tail call i32 @lv_array_capacity(ptr noundef nonnull %6) #9
  %12 = icmp ugt i32 %10, %11
  br i1 %12, label %13, label %18

13:                                               ; preds = %8
  %14 = getelementptr inbounds nuw i8, ptr %0, i64 20
  %15 = load i32, ptr %14, align 4, !tbaa !18
  %16 = shl i32 %15, 1
  %17 = tail call zeroext i1 @lv_array_resize(ptr noundef nonnull %6, i32 noundef %16) #9
  br label %18

18:                                               ; preds = %13, %8
  %19 = getelementptr inbounds nuw i8, ptr %0, i64 32
  %20 = tail call i32 @lv_array_size(ptr noundef nonnull %19) #9
  %21 = add i32 %20, 3
  %22 = tail call i32 @lv_array_capacity(ptr noundef nonnull %19) #9
  %23 = icmp ugt i32 %21, %22
  br i1 %23, label %24, label %29

24:                                               ; preds = %18
  %25 = getelementptr inbounds nuw i8, ptr %0, i64 44
  %26 = load i32, ptr %25, align 4, !tbaa !19
  %27 = shl i32 %26, 1
  %28 = tail call zeroext i1 @lv_array_resize(ptr noundef nonnull %19, i32 noundef %27) #9
  br label %29

29:                                               ; preds = %18, %24
  call void @llvm.lifetime.start.p0(i64 4, ptr nonnull %5) #9
  store i32 3, ptr %5, align 4, !tbaa !20
  %30 = call i32 @lv_array_push_back(ptr noundef nonnull %6, ptr noundef nonnull %5) #9
  %31 = call i32 @lv_array_push_back(ptr noundef nonnull %19, ptr noundef %1) #9
  %32 = call i32 @lv_array_push_back(ptr noundef nonnull %19, ptr noundef %2) #9
  %33 = call i32 @lv_array_push_back(ptr noundef nonnull %19, ptr noundef %3) #9
  call void @llvm.lifetime.end.p0(i64 4, ptr nonnull %5) #9
  br label %34

34:                                               ; preds = %4, %29
  ret void
}